; Function Attrs: mustprogress nounwind uwtable
define hidden void @_ZN10ODDLParser8PropertyD2Ev(ptr noundef nonnull readonly align 8 captures(none) dereferenceable(32) %0) unnamed_addr #1 align 2 personality ptr @__gxx_personality_v0 {
  %2 = load ptr, ptr %0, align 8
  %3 = icmp eq ptr %2, null
  br i1 %3, label %9, label %4

4:                                                ; preds = %1
  %5 = getelementptr inbounds nuw i8, ptr %2, i64 16
  %6 = load ptr, ptr %5, align 8
  %7 = icmp eq ptr %6, null
  br i1 %7, label %_ZN10ODDLParser4TextD2Ev.exit, label %8

8:                                                ; preds = %4
  tail call void @_ZdaPv(ptr noundef nonnull %6) #13
  br label %_ZN10ODDLParser4TextD2Ev.exit

_ZN10ODDLParser4TextD2Ev.exit:                    ; preds = %4, %8
  tail call void @_ZdlPvm(ptr noundef nonnull %2, i64 noundef 24) #13
  br label %9

9:                                                ; preds = %_ZN10ODDLParser4TextD2Ev.exit, %1
  %10 = getelementptr inbounds nuw i8, ptr %0, i64 8
  %11 = load ptr, ptr %10, align 8
  %.not = icmp eq ptr %11, null
  br i1 %.not, label %13, label %12

12:                                               ; preds = %9
  tail call void @_ZN10ODDLParser5ValueD1Ev(ptr noundef nonnull align 8 dereferenceable(32) %11) #12
  tail call void @_ZdlPvm(ptr noundef nonnull %11, i64 noundef 32) #13
  br label %13

13:                                               ; preds = %12, %9
  %14 = getelementptr inbounds nuw i8, ptr %0, i64 16
  %15 = load ptr, ptr %14, align 8
  %.not4 = icmp eq ptr %15, null
  br i1 %.not4, label %42, label %16

16:                                               ; preds = %13
  %17 = load i64, ptr %15, align 8
  %.not.i = icmp eq i64 %17, 0
  br i1 %.not.i, label %._crit_edge.i, label %.lr.ph.i

.lr.ph.i:                                         ; preds = %16
  %18 = getelementptr inbounds nuw i8, ptr %15, i64 8
  br label %22

._crit_edge.i:                                    ; preds = %37, %16
  store i64 0, ptr %15, align 8
  %19 = getelementptr inbounds nuw i8, ptr %15, i64 8
  %20 = load ptr, ptr %19, align 8
  %21 = icmp eq ptr %20, null
  br i1 %21, label %_ZN10ODDLParser9ReferenceD2Ev.exit, label %41

22:                                               ; preds = %37, %.lr.ph.i
  %23 = phi i64 [ %17, %.lr.ph.i ], [ %38, %37 ]
  %.05.i = phi i64 [ 0, %.lr.ph.i ], [ %39, %37 ]
  %24 = load ptr, ptr %18, align 8
  %25 = getelementptr inbounds nuw ptr, ptr %24, i64 %.05.i
  %26 = load ptr, ptr %25, align 8
  %27 = icmp eq ptr %26, null
  br i1 %27, label %37, label %28

28:                                               ; preds = %22
  %29 = getelementptr inbounds nuw i8, ptr %26, i64 8
  %30 = load ptr, ptr %29, align 8
  %31 = icmp eq ptr %30, null
  br i1 %31, label %_ZN10ODDLParser4NameD2Ev.exit.i, label %32

32:                                               ; preds = %28
  %33 = getelementptr inbounds nuw i8, ptr %30, i64 16
  %34 = load ptr, ptr %33, align 8
  %35 = icmp eq ptr %34, null
  br i1 %35, label %_ZN10ODDLParser4TextD2Ev.exit.i.i, label %36

36:                                               ; preds = %32
  tail call void @_ZdaPv(ptr noundef nonnull %34) #13
  br label %_ZN10ODDLParser4TextD2Ev.exit.i.i

_ZN10ODDLParser4TextD2Ev.exit.i.i:                ; preds = %36, %32
  tail call void @_ZdlPvm(ptr noundef nonnull %30, i64 noundef 24) #13
  br label %_ZN10ODDLParser4NameD2Ev.exit.i

_ZN10ODDLParser4NameD2Ev.exit.i:                  ; preds = %_ZN10ODDLParser4TextD2Ev.exit.i.i, %28
  tail call void @_ZdlPvm(ptr noundef nonnull %26, i64 noundef 16) #13
  %.pre.i = load i64, ptr %15, align 8
  br label %37

37:                                               ; preds = %_ZN10ODDLParser4NameD2Ev.exit.i, %22
  %38 = phi i64 [ %23, %22 ], [ %.pre.i, %_ZN10ODDLParser4NameD2Ev.exit.i ]
  %39 = add nuw i64 %.05.i, 1
  %40 = icmp ult i64 %39, %38
  br i1 %40, label %22, label %._crit_edge.i, !llvm.loop !6

41:                                               ; preds = %._crit_edge.i
  tail call void @_ZdaPv(ptr noundef nonnull %20) #13
  br label %_ZN10ODDLParser9ReferenceD2Ev.exit

_ZN10ODDLParser9ReferenceD2Ev.exit:               ; preds = %._crit_edge.i, %41
  tail call void @_ZdlPvm(ptr noundef nonnull %15, i64 noundef 16) #13
  br label %42

42:                                               ; preds = %_ZN10ODDLParser9ReferenceD2Ev.exit, %13
  %43 = getelementptr inbounds nuw i8, ptr %0, i64 24
  %44 = load ptr, ptr %43, align 8
  %.not5 = icmp eq ptr %44, null
  br i1 %.not5, label %common.ret6, label %45

common.ret6:                                      ; preds = %42, %45
  ret void

45:                                               ; preds = %42
  tail call void @_ZN10ODDLParser8PropertyD2Ev(ptr noundef nonnull align 8 dereferenceable(32) %44) #12
  tail call void @_ZdlPvm(ptr noundef nonnull %44, i64 noundef 32) #13
  br label %common.ret6
}